	.file	"Main.c"
	.text
	.globl	init
	.type	init, @function
init:
.LFB6:
	.cfi_startproc
	endbr64
	pushq	%rbp
	.cfi_def_cfa_offset 16
	.cfi_offset 6, -16
	movq	%rsp, %rbp
	.cfi_def_cfa_register 6
	subq	$32, %rsp
	movl	%edi, -20(%rbp)
	movl	$16, %esi
	movl	$1, %edi
	call	calloc@PLT
	movq	%rax, -8(%rbp)
	movq	-8(%rbp), %rax
	movl	-20(%rbp), %edx
	movl	%edx, 8(%rax)
	movq	-8(%rbp), %rax
	leave
	.cfi_def_cfa 7, 8
	ret
	.cfi_endproc
.LFE6:
	.size	init, .-init
	.globl	add
	.type	add, @function
add:
.LFB7:
	.cfi_startproc
	endbr64
	pushq	%rbp
	.cfi_def_cfa_offset 16
	.cfi_offset 6, -16
	movq	%rsp, %rbp
	.cfi_def_cfa_register 6
	subq	$32, %rsp
	movq	%rdi, -24(%rbp)
	movl	%esi, -28(%rbp)
	movl	$16, %esi
	movl	$1, %edi
	call	calloc@PLT
	movq	%rax, -8(%rbp)
	movq	-24(%rbp), %rax
	movq	-8(%rbp), %rdx
	movq	%rdx, (%rax)
	movq	-8(%rbp), %rax
	movl	-28(%rbp), %edx
	movl	%edx, 8(%rax)
	movq	-8(%rbp), %rax
	leave
	.cfi_def_cfa 7, 8
	ret
	.cfi_endproc
.LFE7:
	.size	add, .-add
	.globl	freeLinkedList
	.type	freeLinkedList, @function
freeLinkedList:
.LFB8:
	.cfi_startproc
	endbr64
	pushq	%rbp
	.cfi_def_cfa_offset 16
	.cfi_offset 6, -16
	movq	%rsp, %rbp
	.cfi_def_cfa_register 6
	subq	$32, %rsp
	movq	%rdi, -24(%rbp)
	movq	-24(%rbp), %rax
	movq	(%rax), %rax
	movq	%rax, -8(%rbp)
	movq	-24(%rbp), %rax
	movq	%rax, %rdi
	call	free@PLT
	cmpq	$0, -8(%rbp)
	je	.L7
	movq	-8(%rbp), %rax
	movq	%rax, %rdi
	call	freeLinkedList
.L7:
	nop
	leave
	.cfi_def_cfa 7, 8
	ret
	.cfi_endproc
.LFE8:
	.size	freeLinkedList, .-freeLinkedList
	.section	.rodata
.LC0:
	.string	"%d\n"
	.text
	.globl	main
	.type	main, @function
main:
.LFB9:
	.cfi_startproc
	endbr64
	pushq	%rbp
	.cfi_def_cfa_offset 16
	.cfi_offset 6, -16
	movq	%rsp, %rbp
	.cfi_def_cfa_register 6
	subq	$32, %rsp
	movl	$3, %edi
	call	init
	movq	%rax, -8(%rbp)
	movq	-8(%rbp), %rax
	movq	%rax, -24(%rbp)
	movl	$5, -28(%rbp)
.L9:
	movq	-8(%rbp), %rax
	movq	%rax, -16(%rbp)
	jmp	.L10
.L12:
	movq	-16(%rbp), %rax
	movl	8(%rax), %ecx
	movl	-28(%rbp), %eax
	cltd
	idivl	%ecx
	movl	%edx, %eax
	testl	%eax, %eax
	jne	.L11
	addl	$2, -28(%rbp)
	jmp	.L9
.L11:
	movq	-16(%rbp), %rax
	movq	(%rax), %rax
	movq	%rax, -16(%rbp)
.L10:
	cmpq	$0, -16(%rbp)
	jne	.L12
	movl	-28(%rbp), %eax
	movl	%eax, %esi
	leaq	.LC0(%rip), %rdi
	movl	$0, %eax
	call	printf@PLT
	movl	-28(%rbp), %edx
	movq	-24(%rbp), %rax
	movl	%edx, %esi
	movq	%rax, %rdi
	call	add
	movq	%rax, -24(%rbp)
	addl	$2, -28(%rbp)
	jmp	.L9
	.cfi_endproc
.LFE9:
	.size	main, .-main
	.ident	"GCC: (Ubuntu 9.2.1-9ubuntu2) 9.2.1 20191008"
	.section	.note.GNU-stack,"",@progbits
	.section	.note.gnu.property,"a"
	.align 8
	.long	 1f - 0f
	.long	 4f - 1f
	.long	 5
0:
	.string	 "GNU"
1:
	.align 8
	.long	 0xc0000002
	.long	 3f - 2f
2:
	.long	 0x3
3:
	.align 8
4:
